target datalayout = "e-m:e-p270:32:32-p271:32:32-p272:64:64-i64:64-i128:128-f80:128-n8:16:32:64-S128"
target triple = "x86_64-pc-linux-gnu"

%struct._php_ps_globals = type { ptr, ptr, ptr, ptr, ptr, i64, ptr, ptr, ptr, i8, i8, ptr, ptr, ptr, i32, ptr, i32, i32, %struct._php_random_status_state_pcgoneseq128xslrr64, %struct._php_random_algo_with_state, i64, i64, i64, i64, %struct.anon, ptr, i8, i8, i8, i8, i8, i8, i8, i8, ptr, %struct._zval_struct, i64, i64, ptr, ptr, ptr, i64, double, i8, i8, i8, i8, i8, i8, ptr }
%struct._php_random_status_state_pcgoneseq128xslrr64 = type { i128 }
%struct._php_random_algo_with_state = type { ptr, ptr }
%struct.anon = type { %struct._zval_struct, %struct._zval_struct, %struct._zval_struct, %struct._zval_struct, %struct._zval_struct, %struct._zval_struct, %struct._zval_struct, %struct._zval_struct, %struct._zval_struct }
%struct._zval_struct = type { %union._zend_value, %union.anon, %union.anon.3 }
%union._zend_value = type { i64 }
%union.anon = type { i32 }
%union.anon.3 = type { i32 }
%struct._zend_executor_globals = type { %struct._zval_struct, %struct._zval_struct, [32 x ptr], ptr, ptr, %struct._zend_array, %struct._zend_array, ptr, i32, i32, ptr, ptr, ptr, ptr, ptr, ptr, i64, ptr, ptr, i32, i32, i64, i32, i32, i32, i8, i8, %struct.zend_atomic_bool_s, %struct.zend_atomic_bool_s, ptr, i64, ptr, ptr, %struct._zend_array, %struct._zend_array, i32, i8, %struct._zval_struct, %struct._zval_struct, %struct._zend_stack, %struct._zend_stack, %struct._zend_stack, ptr, i32, i32, i64, ptr, ptr, ptr, %struct._zend_objects_store, ptr, ptr, ptr, [3 x %struct._zend_op], ptr, i8, i8, i64, i32, i32, ptr, [16 x %struct._HashTableIterator], ptr, %union._zend_function, %struct._zend_op, %struct._zend_array, i64, %struct.zend_get_gc_buffer, ptr, ptr, ptr, i64, i8, i32, ptr, ptr, i64, %struct._zend_call_stack, i64, i64, [6 x ptr] }
%struct.zend_atomic_bool_s = type { i8 }
%struct._zend_stack = type { i32, i32, i32, ptr }
%struct._zend_objects_store = type { ptr, i32, i32, i32 }
%struct._HashTableIterator = type { ptr, i32, i32 }
%union._zend_function = type { %struct._zend_op_array }
%struct._zend_op_array = type { i8, [3 x i8], i32, ptr, ptr, ptr, i32, i32, ptr, ptr, ptr, ptr, i32, i32, i32, i32, ptr, ptr, ptr, ptr, ptr, i32, i32, ptr, ptr, ptr, i32, i32, i32, i32, ptr, ptr, [6 x ptr] }
%struct._zend_op = type { ptr, %union._znode_op, %union._znode_op, %union._znode_op, i32, i32, i8, i8, i8, i8 }
%union._znode_op = type { i32 }
%struct._zend_array = type { %struct._zend_refcounted_h, %union.anon.5, i32, %union.anon.7, i32, i32, i32, i32, i64, ptr }
%struct._zend_refcounted_h = type { i32, %union.anon.4 }
%union.anon.4 = type { i32 }
%union.anon.5 = type { i32 }
%union.anon.7 = type { ptr }
%struct.zend_get_gc_buffer = type { ptr, ptr, ptr }
%struct._zend_call_stack = type { ptr, i64 }
%struct.ps_module_struct = type { ptr, ptr, ptr, ptr, ptr, ptr, ptr, ptr, ptr, ptr }

@ps_globals = global %struct._php_ps_globals zeroinitializer, align 16
@.str = private unnamed_addr constant [40 x i8] c"Trying to destroy uninitialized session\00", align 1
@executor_globals = external global %struct._zend_executor_globals, align 8
@.str.1 = private unnamed_addr constant [34 x i8] c"Session object destruction failed\00", align 1
@my_module_number = internal global i32 0, align 4

; Function Attrs: nounwind uwtable
define internal void @php_rinit_session_globals() #0 {
  store ptr null, ptr getelementptr inbounds (%struct._php_ps_globals, ptr @ps_globals, i32 0, i32 2), align 16
  store i32 1, ptr getelementptr inbounds (%struct._php_ps_globals, ptr @ps_globals, i32 0, i32 14), align 8
  store i8 0, ptr getelementptr inbounds (%struct._php_ps_globals, ptr @ps_globals, i32 0, i32 47), align 4
  store i8 0, ptr getelementptr inbounds (%struct._php_ps_globals, ptr @ps_globals, i32 0, i32 48), align 1
  store ptr null, ptr getelementptr inbounds (%struct._php_ps_globals, ptr @ps_globals, i32 0, i32 13), align 16
  store i8 0, ptr getelementptr inbounds (%struct._php_ps_globals, ptr @ps_globals, i32 0, i32 27), align 1
  store i8 1, ptr getelementptr inbounds (%struct._php_ps_globals, ptr @ps_globals, i32 0, i32 33), align 1
  store ptr null, ptr getelementptr inbounds (%struct._php_ps_globals, ptr @ps_globals, i32 0, i32 49), align 8
  %1 = load i32, ptr @my_module_number, align 4
  store i32 %1, ptr getelementptr inbounds (%struct._php_ps_globals, ptr @ps_globals, i32 0, i32 17), align 4
  br label %2

2:                                                ; preds = %0
  store i32 0, ptr getelementptr inbounds (%struct._php_ps_globals, ptr @ps_globals, i32 0, i32 35, i32 1), align 8
  br label %3

3:                                                ; preds = %2
  ret void
}

; Function Attrs: nounwind uwtable
define i32 @php_session_destroy() #0 {
  %1 = alloca i32, align 4
  %2 = alloca i32, align 4
  store i32 0, ptr %2, align 4
  %3 = load i32, ptr getelementptr inbounds (%struct._php_ps_globals, ptr @ps_globals, i32 0, i32 14), align 8
  %4 = icmp ne i32 %3, 2
  br i1 %4, label %5, label %6

5:                                                ; preds = %0
  call void (ptr, i32, ptr, ...) @php_error_docref(ptr noundef null, i32 noundef 2, ptr noundef @.str)
  store i32 -1, ptr %1, align 4
  br label %23

6:                                                ; preds = %0
  %7 = load ptr, ptr getelementptr inbounds (%struct._php_ps_globals, ptr @ps_globals, i32 0, i32 2), align 16
  %8 = icmp ne ptr %7, null
  br i1 %8, label %9, label %21

9:                                                ; preds = %6
  %10 = load ptr, ptr getelementptr inbounds (%struct._php_ps_globals, ptr @ps_globals, i32 0, i32 11), align 16
  %11 = getelementptr inbounds %struct.ps_module_struct, ptr %10, i32 0, i32 5
  %12 = load ptr, ptr %11, align 8
  %13 = load ptr, ptr getelementptr inbounds (%struct._php_ps_globals, ptr @ps_globals, i32 0, i32 2), align 16
  %14 = call i32 %12(ptr noundef getelementptr inbounds (%struct._php_ps_globals, ptr @ps_globals, i32 0, i32 13), ptr noundef %13)
  %15 = icmp eq i32 %14, -1
  br i1 %15, label %16, label %21

16:                                               ; preds = %9
  store i32 -1, ptr %2, align 4
  %17 = load ptr, ptr getelementptr inbounds (%struct._zend_executor_globals, ptr @executor_globals, i32 0, i32 50), align 8
  %18 = icmp ne ptr %17, null
  br i1 %18, label %20, label %19

19:                                               ; preds = %16
  call void (ptr, i32, ptr, ...) @php_error_docref(ptr noundef null, i32 noundef 2, ptr noundef @.str.1)
  br label %20

20:                                               ; preds = %19, %16
  br label %21

21:                                               ; preds = %20, %9, %6
  call void @php_rshutdown_session_globals()
  call void @php_rinit_session_globals()
  %22 = load i32, ptr %2, align 4
  store i32 %22, ptr %1, align 4
  br label %23

23:                                               ; preds = %21, %5
  %24 = load i32, ptr %1, align 4
  ret i32 %24
}