; Function Attrs: nounwind uwtable
define noundef i32 @php_session_destroy() local_unnamed_addr #0 {
  %1 = load i32, ptr getelementptr inbounds (%struct._php_ps_globals, ptr @ps_globals, i64 0, i32 14), align 8
  %.not = icmp eq i32 %1, 2
  br i1 %.not, label %3, label %2

2:                                                ; preds = %0
  tail call void (ptr, i32, ptr, ...) @php_error_docref(ptr noundef null, i32 noundef 2, ptr noundef nonnull @.str) #23
  br label %16

3:                                                ; preds = %0
  %4 = load ptr, ptr getelementptr inbounds (%struct._php_ps_globals, ptr @ps_globals, i64 0, i32 2), align 16
  %.not4 = icmp eq ptr %4, null
  br i1 %.not4, label %14, label %5

5:                                                ; preds = %3
  %6 = load ptr, ptr getelementptr inbounds (%struct._php_ps_globals, ptr @ps_globals, i64 0, i32 11), align 16
  %7 = getelementptr inbounds i8, ptr %6, i64 40
  %8 = load ptr, ptr %7, align 8
  %9 = tail call i32 %8(ptr noundef nonnull getelementptr inbounds (%struct._php_ps_globals, ptr @ps_globals, i64 0, i32 13), ptr noundef nonnull %4) #23
  %10 = icmp eq i32 %9, -1
  br i1 %10, label %11, label %14

11:                                               ; preds = %5
  %12 = load ptr, ptr getelementptr inbounds (%struct._zend_executor_globals, ptr @executor_globals, i64 0, i32 50), align 8
  %.not5 = icmp eq ptr %12, null
  br i1 %.not5, label %13, label %14

13:                                               ; preds = %11
  tail call void (ptr, i32, ptr, ...) @php_error_docref(ptr noundef null, i32 noundef 2, ptr noundef nonnull @.str.1) #23
  br label %14

14:                                               ; preds = %11, %13, %5, %3
  %.0 = phi i32 [ -1, %11 ], [ -1, %13 ], [ 0, %5 ], [ 0, %3 ]
  tail call fastcc void @php_rshutdown_session_globals()
  store ptr null, ptr getelementptr inbounds (%struct._php_ps_globals, ptr @ps_globals, i64 0, i32 2), align 16
  store i32 1, ptr getelementptr inbounds (%struct._php_ps_globals, ptr @ps_globals, i64 0, i32 14), align 8
  store i8 0, ptr getelementptr inbounds (%struct._php_ps_globals, ptr @ps_globals, i64 0, i32 47), align 4
  store i8 0, ptr getelementptr inbounds (%struct._php_ps_globals, ptr @ps_globals, i64 0, i32 48), align 1
  store ptr null, ptr getelementptr inbounds (%struct._php_ps_globals, ptr @ps_globals, i64 0, i32 13), align 16
  store i8 0, ptr getelementptr inbounds (%struct._php_ps_globals, ptr @ps_globals, i64 0, i32 27), align 1
  store i8 1, ptr getelementptr inbounds (%struct._php_ps_globals, ptr @ps_globals, i64 0, i32 33), align 1
  store ptr null, ptr getelementptr inbounds (%struct._php_ps_globals, ptr @ps_globals, i64 0, i32 49), align 8
  %15 = load i32, ptr @my_module_number, align 4
  store i32 %15, ptr getelementptr inbounds (%struct._php_ps_globals, ptr @ps_globals, i64 0, i32 17), align 4
  store i32 0, ptr getelementptr inbounds (%struct._php_ps_globals, ptr @ps_globals, i64 0, i32 35, i32 1), align 16
  br label %16

16:                                               ; preds = %14, %2
  %.02 = phi i32 [ -1, %2 ], [ %.0, %14 ]
  ret i32 %.02
}